target datalayout = "e-m:e-p270:32:32-p271:32:32-p272:64:64-i64:64-i128:128-f80:128-n8:16:32:64-S128"
target triple = "x86_64-pc-linux-gnu"

%"class.std::chrono::duration" = type { i64 }
%"class.google::LogMessage" = type { ptr, ptr, %"struct.google::LogMessageTime" }
%"struct.google::LogMessageTime" = type { %struct.tm, %"class.std::chrono::time_point", %"class.std::chrono::duration.23", %"class.std::chrono::duration.24" }
%struct.tm = type { i32, i32, i32, i32, i32, i32, i32, i32, i32, i64, ptr }
%"class.std::chrono::time_point" = type { %"class.std::chrono::duration" }
%"class.std::chrono::duration.23" = type { i64 }
%"class.std::chrono::duration.24" = type { i64 }

@.str.32 = private unnamed_addr constant [111 x i8] c"generated/home/dtcxzyw/WorkSpace/Projects/compilers/llvm-opt-benchmark/bench/glog/glog/src/logging_unittest.cc\00", align 1
@.str.163 = private unnamed_addr constant [13 x i8] c"Backtrace me\00", align 1
@.str.165 = private unnamed_addr constant [7 x i8] c"Not me\00", align 1

; Function Attrs: mustprogress uwtable
define internal void @_ZL17BacktraceAtHelperv() #4 personality ptr @__gxx_personality_v0 {
  %1 = alloca %"class.google::LogMessage", align 8
  %2 = alloca ptr, align 8
  %3 = alloca i32, align 4
  %4 = alloca %"class.google::LogMessage", align 8
  call void @_ZN6google10LogMessageC1EPKci(ptr noundef nonnull align 8 dereferenceable(96) %1, ptr noundef @.str.32, i32 noundef 1465)
  %5 = invoke noundef nonnull align 8 dereferenceable(8) ptr @_ZN6google10LogMessage6streamEv(ptr noundef nonnull align 8 dereferenceable(96) %1)
          to label %6 unwind label %13

6:                                                ; preds = %0
  %7 = invoke noundef nonnull align 8 dereferenceable(8) ptr @_ZStlsISt11char_traitsIcEERSt13basic_ostreamIcT_ES5_PKc(ptr noundef nonnull align 8 dereferenceable(8) %5, ptr noundef @.str.165)
          to label %8 unwind label %13

8:                                                ; preds = %6
  call void @_ZN6google10LogMessageD1Ev(ptr noundef nonnull align 8 dereferenceable(96) %1)
  call void @_ZN6google10LogMessageC1EPKci(ptr noundef nonnull align 8 dereferenceable(96) %4, ptr noundef @.str.32, i32 noundef 1468)
  %9 = invoke noundef nonnull align 8 dereferenceable(8) ptr @_ZN6google10LogMessage6streamEv(ptr noundef nonnull align 8 dereferenceable(96) %4)
          to label %10 unwind label %18

10:                                               ; preds = %8
  %11 = invoke noundef nonnull align 8 dereferenceable(8) ptr @_ZStlsISt11char_traitsIcEERSt13basic_ostreamIcT_ES5_PKc(ptr noundef nonnull align 8 dereferenceable(8) %9, ptr noundef @.str.163)
          to label %12 unwind label %18

12:                                               ; preds = %10
  call void @_ZN6google10LogMessageD1Ev(ptr noundef nonnull align 8 dereferenceable(96) %4)
  ret void

13:                                               ; preds = %6, %0
  %14 = landingpad { ptr, i32 }
          cleanup
  %15 = extractvalue { ptr, i32 } %14, 0
  store ptr %15, ptr %2, align 8
  %16 = extractvalue { ptr, i32 } %14, 1
  store i32 %16, ptr %3, align 4
  invoke void @_ZN6google10LogMessageD1Ev(ptr noundef nonnull align 8 dereferenceable(96) %1)
          to label %17 unwind label %28

17:                                               ; preds = %13
  br label %23

18:                                               ; preds = %10, %8
  %19 = landingpad { ptr, i32 }
          cleanup
  %20 = extractvalue { ptr, i32 } %19, 0
  store ptr %20, ptr %2, align 8
  %21 = extractvalue { ptr, i32 } %19, 1
  store i32 %21, ptr %3, align 4
  invoke void @_ZN6google10LogMessageD1Ev(ptr noundef nonnull align 8 dereferenceable(96) %4)
          to label %22 unwind label %28

22:                                               ; preds = %18
  br label %23

23:                                               ; preds = %22, %17
  %24 = load ptr, ptr %2, align 8
  %25 = load i32, ptr %3, align 4
  %26 = insertvalue { ptr, i32 } poison, ptr %24, 0
  %27 = insertvalue { ptr, i32 } %26, i32 %25, 1
  resume { ptr, i32 } %27

28:                                               ; preds = %18, %13
  %29 = landingpad { ptr, i32 }
          catch ptr null
  %30 = extractvalue { ptr, i32 } %29, 0
  call void @__clang_call_terminate(ptr %30) #24
  unreachable
}