; Function Attrs: mustprogress uwtable
define internal fastcc void @_ZL17BacktraceAtHelperv() unnamed_addr #3 personality ptr @__gxx_personality_v0 {
  %1 = alloca %"class.google::LogMessage", align 8
  %2 = alloca %"class.google::LogMessage", align 8
  call void @_ZN6google10LogMessageC1EPKci(ptr noundef nonnull align 8 dereferenceable(96) %1, ptr noundef nonnull @.str.32, i32 noundef 1465)
  %3 = invoke noundef nonnull align 8 dereferenceable(8) ptr @_ZN6google10LogMessage6streamEv(ptr noundef nonnull align 8 dereferenceable(96) %1)
          to label %4 unwind label %11

4:                                                ; preds = %0
  %5 = invoke noundef nonnull align 8 dereferenceable(8) ptr @_ZStlsISt11char_traitsIcEERSt13basic_ostreamIcT_ES5_PKc(ptr noundef nonnull align 8 dereferenceable(8) %3, ptr noundef nonnull @.str.165)
          to label %6 unwind label %11

6:                                                ; preds = %4
  call void @_ZN6google10LogMessageD1Ev(ptr noundef nonnull align 8 dereferenceable(96) %1)
  call void @_ZN6google10LogMessageC1EPKci(ptr noundef nonnull align 8 dereferenceable(96) %2, ptr noundef nonnull @.str.32, i32 noundef 1468)
  %7 = invoke noundef nonnull align 8 dereferenceable(8) ptr @_ZN6google10LogMessage6streamEv(ptr noundef nonnull align 8 dereferenceable(96) %2)
          to label %8 unwind label %13

8:                                                ; preds = %6
  %9 = invoke noundef nonnull align 8 dereferenceable(8) ptr @_ZStlsISt11char_traitsIcEERSt13basic_ostreamIcT_ES5_PKc(ptr noundef nonnull align 8 dereferenceable(8) %7, ptr noundef nonnull @.str.163)
          to label %10 unwind label %13

10:                                               ; preds = %8
  call void @_ZN6google10LogMessageD1Ev(ptr noundef nonnull align 8 dereferenceable(96) %2)
  ret void

11:                                               ; preds = %4, %0
  %12 = landingpad { ptr, i32 }
          cleanup
  invoke void @_ZN6google10LogMessageD1Ev(ptr noundef nonnull align 8 dereferenceable(96) %1)
          to label %15 unwind label %16

13:                                               ; preds = %8, %6
  %14 = landingpad { ptr, i32 }
          cleanup
  invoke void @_ZN6google10LogMessageD1Ev(ptr noundef nonnull align 8 dereferenceable(96) %2)
          to label %15 unwind label %16

15:                                               ; preds = %13, %11
  %.pn = phi { ptr, i32 } [ %14, %13 ], [ %12, %11 ]
  resume { ptr, i32 } %.pn

16:                                               ; preds = %13, %11
  %17 = landingpad { ptr, i32 }
          catch ptr null
  %18 = extractvalue { ptr, i32 } %17, 0
  call void @__clang_call_terminate(ptr %18) #37
  unreachable
}